target datalayout = "e-m:e-p270:32:32-p271:32:32-p272:64:64-i64:64-i128:128-f80:128-n8:16:32:64-S128"
target triple = "x86_64-pc-linux-gnu"

%struct.lv_color16_t = type { i16 }

; Function Attrs: nounwind uwtable
define zeroext i8 @lv_color16_luminance(i16 %0) #0 {
  %2 = alloca %struct.lv_color16_t, align 2
  %3 = getelementptr inbounds nuw %struct.lv_color16_t, ptr %2, i32 0, i32 0
  store i16 %0, ptr %3, align 2
  %4 = load i16, ptr %2, align 2
  %5 = lshr i16 %4, 11
  %6 = zext i16 %5 to i32
  %7 = mul i32 635, %6
  %8 = load i16, ptr %2, align 2
  %9 = lshr i16 %8, 5
  %10 = and i16 %9, 63
  %11 = zext i16 %10 to i32
  %12 = mul i32 613, %11
  %13 = add i32 %7, %12
  %14 = load i16, ptr %2, align 2
  %15 = and i16 %14, 31
  %16 = zext i16 %15 to i32
  %17 = mul i32 231, %16
  %18 = add i32 %13, %17
  %19 = trunc i32 %18 to i16
  %20 = zext i16 %19 to i32
  %21 = ashr i32 %20, 8
  %22 = trunc i32 %21 to i8
  ret i8 %22
}