; Function Attrs: mustprogress nofree norecurse nosync nounwind willreturn memory(none) uwtable
define zeroext i8 @lv_color16_luminance(i16 %0) local_unnamed_addr #1 {
  %2 = lshr i16 %0, 11
  %narrow = mul nuw nsw i16 %2, 635
  %3 = lshr i16 %0, 5
  %4 = and i16 %3, 63
  %narrow3 = mul nuw i16 %4, 613
  %5 = and i16 %0, 31
  %narrow4 = mul nuw nsw i16 %5, 231
  %6 = add nuw nsw i16 %narrow4, %narrow
  %7 = add nuw i16 %6, %narrow3
  %8 = lshr i16 %7, 8
  %9 = trunc nuw i16 %8 to i8
  ret i8 %9
}